target datalayout = "e-m:e-p270:32:32-p271:32:32-p272:64:64-i64:64-i128:128-f80:128-n8:16:32:64-S128"
target triple = "x86_64-pc-linux-gnu"

%struct.hmac_data_st = type { ptr, ptr, %struct.PROV_DIGEST, ptr, i64, i64, [13 x i8], i32, [64 x i8], i64 }
%struct.PROV_DIGEST = type { ptr, ptr, ptr }

@.str.1 = private unnamed_addr constant [5 x i8] c"size\00", align 1
@.str.2 = private unnamed_addr constant [11 x i8] c"block-size\00", align 1

; Function Attrs: nounwind uwtable
define internal i32 @hmac_block_size(ptr noundef %0) #0 {
  %2 = alloca i32, align 4
  %3 = alloca ptr, align 8
  %4 = alloca ptr, align 8
  %5 = alloca i32, align 4
  store ptr %0, ptr %3, align 8, !tbaa !7
  call void @llvm.lifetime.start.p0(i64 8, ptr %4) #6
  %6 = load ptr, ptr %3, align 8, !tbaa !7
  %7 = getelementptr inbounds nuw %struct.hmac_data_st, ptr %6, i32 0, i32 2
  %8 = call ptr @ossl_prov_digest_md(ptr noundef %7)
  store ptr %8, ptr %4, align 8, !tbaa !21
  %9 = load ptr, ptr %4, align 8, !tbaa !21
  %10 = icmp eq ptr %9, null
  br i1 %10, label %11, label %12

11:                                               ; preds = %1
  store i32 0, ptr %2, align 4
  store i32 1, ptr %5, align 4
  br label %15

12:                                               ; preds = %1
  %13 = load ptr, ptr %4, align 8, !tbaa !21
  %14 = call i32 @EVP_MD_get_block_size(ptr noundef %13)
  store i32 %14, ptr %2, align 4
  store i32 1, ptr %5, align 4
  br label %15

15:                                               ; preds = %12, %11
  call void @llvm.lifetime.end.p0(i64 8, ptr %4) #6
  %16 = load i32, ptr %2, align 4
  ret i32 %16
}

; Function Attrs: nounwind uwtable
define internal i64 @hmac_size(ptr noundef %0) #0 {
  %2 = alloca ptr, align 8
  store ptr %0, ptr %2, align 8, !tbaa !7
  %3 = load ptr, ptr %2, align 8, !tbaa !7
  %4 = getelementptr inbounds nuw %struct.hmac_data_st, ptr %3, i32 0, i32 1
  %5 = load ptr, ptr %4, align 8, !tbaa !9
  %6 = call i64 @HMAC_size(ptr noundef %5)
  ret i64 %6
}

; Function Attrs: nounwind uwtable
define internal i32 @hmac_get_ctx_params(ptr noundef %0, ptr noundef %1) #0 {
  %3 = alloca i32, align 4
  %4 = alloca ptr, align 8
  %5 = alloca ptr, align 8
  %6 = alloca ptr, align 8
  %7 = alloca ptr, align 8
  %8 = alloca i32, align 4
  store ptr %0, ptr %4, align 8, !tbaa !3
  store ptr %1, ptr %5, align 8, !tbaa !29
  call void @llvm.lifetime.start.p0(i64 8, ptr %6) #6
  %9 = load ptr, ptr %4, align 8, !tbaa !3
  store ptr %9, ptr %6, align 8, !tbaa !7
  call void @llvm.lifetime.start.p0(i64 8, ptr %7) #6
  %10 = load ptr, ptr %5, align 8, !tbaa !29
  %11 = call ptr @OSSL_PARAM_locate(ptr noundef %10, ptr noundef @.str.1)
  store ptr %11, ptr %7, align 8, !tbaa !29
  %12 = icmp ne ptr %11, null
  br i1 %12, label %13, label %20

13:                                               ; preds = %2
  %14 = load ptr, ptr %7, align 8, !tbaa !29
  %15 = load ptr, ptr %6, align 8, !tbaa !7
  %16 = call i64 @hmac_size(ptr noundef %15)
  %17 = call i32 @OSSL_PARAM_set_size_t(ptr noundef %14, i64 noundef %16)
  %18 = icmp ne i32 %17, 0
  br i1 %18, label %20, label %19

19:                                               ; preds = %13
  store i32 0, ptr %3, align 4
  store i32 1, ptr %8, align 4
  br label %32

20:                                               ; preds = %13, %2
  %21 = load ptr, ptr %5, align 8, !tbaa !29
  %22 = call ptr @OSSL_PARAM_locate(ptr noundef %21, ptr noundef @.str.2)
  store ptr %22, ptr %7, align 8, !tbaa !29
  %23 = icmp ne ptr %22, null
  br i1 %23, label %24, label %31

24:                                               ; preds = %20
  %25 = load ptr, ptr %7, align 8, !tbaa !29
  %26 = load ptr, ptr %6, align 8, !tbaa !7
  %27 = call i32 @hmac_block_size(ptr noundef %26)
  %28 = call i32 @OSSL_PARAM_set_int(ptr noundef %25, i32 noundef %27)
  %29 = icmp ne i32 %28, 0
  br i1 %29, label %31, label %30

30:                                               ; preds = %24
  store i32 0, ptr %3, align 4
  store i32 1, ptr %8, align 4
  br label %32

31:                                               ; preds = %24, %20
  store i32 1, ptr %3, align 4
  store i32 1, ptr %8, align 4
  br label %32

32:                                               ; preds = %31, %30, %19
  call void @llvm.lifetime.end.p0(i64 8, ptr %7) #6
  call void @llvm.lifetime.end.p0(i64 8, ptr %6) #6
  %33 = load i32, ptr %3, align 4
  ret i32 %33
}