; Function Attrs: nounwind uwtable
define internal range(i32 0, 2) i32 @hmac_get_ctx_params(ptr noundef %0, ptr noundef %1) #0 {
  %3 = tail call ptr @OSSL_PARAM_locate(ptr noundef %1, ptr noundef nonnull @.str.1) #7
  %.not = icmp eq ptr %3, null
  br i1 %.not, label %8, label %4

4:                                                ; preds = %2
  %5 = getelementptr i8, ptr %0, i64 8
  %.val = load ptr, ptr %5, align 8, !tbaa !3
  %6 = tail call i64 @HMAC_size(ptr noundef %.val) #7
  %7 = tail call i32 @OSSL_PARAM_set_size_t(ptr noundef nonnull %3, i64 noundef %6) #7
  %.not9 = icmp eq i32 %7, 0
  br i1 %.not9, label %18, label %8

8:                                                ; preds = %4, %2
  %9 = tail call ptr @OSSL_PARAM_locate(ptr noundef %1, ptr noundef nonnull @.str.2) #7
  %.not10 = icmp eq ptr %9, null
  br i1 %.not10, label %17, label %10

10:                                               ; preds = %8
  %11 = getelementptr inbounds nuw i8, ptr %0, i64 16
  %12 = tail call ptr @ossl_prov_digest_md(ptr noundef nonnull %11) #7
  %13 = icmp eq ptr %12, null
  br i1 %13, label %hmac_block_size.exit, label %14

14:                                               ; preds = %10
  %15 = tail call i32 @EVP_MD_get_block_size(ptr noundef nonnull %12) #7
  br label %hmac_block_size.exit

hmac_block_size.exit:                             ; preds = %10, %14
  %.0.i = phi i32 [ %15, %14 ], [ 0, %10 ]
  %16 = tail call i32 @OSSL_PARAM_set_int(ptr noundef nonnull %9, i32 noundef %.0.i) #7
  %.not11 = icmp eq i32 %16, 0
  br i1 %.not11, label %18, label %17

17:                                               ; preds = %hmac_block_size.exit, %8
  br label %18

18:                                               ; preds = %hmac_block_size.exit, %4, %17
  %.0 = phi i32 [ 1, %17 ], [ 0, %4 ], [ 0, %hmac_block_size.exit ]
  ret i32 %.0
}